; Function Attrs: nounwind uwtable
define internal void @mycbfn(i32 noundef %0, i64 noundef %1, ptr noundef initializes((472, 476)) %2) #0 {
  fence acquire
  %4 = icmp eq i32 %0, 0
  %5 = trunc i64 %1 to i32
  %spec.select = select i1 %4, i32 %5, i32 %0
  %6 = getelementptr inbounds nuw i8, ptr %2, i64 472
  store i32 %spec.select, ptr %6, align 8, !tbaa !111
  %7 = getelementptr inbounds nuw i8, ptr %2, i64 376
  %8 = tail call i32 @pthread_mutex_lock(ptr noundef nonnull %7) #18
  %9 = getelementptr inbounds nuw i8, ptr %2, i64 464
  store volatile i8 0, ptr %9, align 8, !tbaa !109
  fence release
  %10 = getelementptr inbounds nuw i8, ptr %2, i64 416
  %11 = tail call i32 @pthread_cond_broadcast(ptr noundef nonnull %10) #18
  %12 = tail call i32 @pthread_mutex_unlock(ptr noundef nonnull %7) #18
  ret void
}